; Function Attrs: mustprogress uwtable
define hidden void @_ZN3opt7context3popEj(ptr noundef nonnull align 8 dereferenceable(792) %this, i32 noundef %n) unnamed_addr #3 align 2 {
entry:
  %m_scoped_state = getelementptr inbounds i8, ptr %this, i64 440
  %m_hard_lim.i = getelementptr inbounds i8, ptr %this, i64 488
  %0 = load ptr, ptr %m_hard_lim.i, align 8
  %cmp.i.i = icmp eq ptr %0, null
  br i1 %cmp.i.i, label %_ZNK3opt7context12scoped_state10num_scopesEv.exit, label %if.end.i.i

if.end.i.i:                                       ; preds = %entry
  %arrayidx.i.i = getelementptr inbounds i8, ptr %0, i64 -4
  %1 = load i32, ptr %arrayidx.i.i, align 4
  br label %_ZNK3opt7context12scoped_state10num_scopesEv.exit

_ZNK3opt7context12scoped_state10num_scopesEv.exit: ; preds = %entry, %if.end.i.i
  %retval.0.i.i = phi i32 [ %1, %if.end.i.i ], [ 0, %entry ]
  %.sroa.speculated = tail call i32 @llvm.umin.i32(i32 %retval.0.i.i, i32 %n)
  %cmp7.not = icmp eq i32 %.sroa.speculated, 0
  br i1 %cmp7.not, label %for.end, label %for.body

for.body:                                         ; preds = %_ZNK3opt7context12scoped_state10num_scopesEv.exit, %for.body
  %i.08 = phi i32 [ %inc, %for.body ], [ 0, %_ZNK3opt7context12scoped_state10num_scopesEv.exit ]
  tail call void @_ZN3opt7context12scoped_state3popEv(ptr noundef nonnull align 8 dereferenceable(152) %m_scoped_state)
  %inc = add nuw i32 %i.08, 1
  %exitcond.not = icmp eq i32 %inc, %.sroa.speculated
  br i1 %exitcond.not, label %for.end, label %for.body, !llvm.loop !22

for.end:                                          ; preds = %for.body, %_ZNK3opt7context12scoped_state10num_scopesEv.exit
  tail call void @_ZN3opt7context11clear_stateEv(ptr noundef nonnull align 8 dereferenceable(792) %this)
  tail call void @_ZN3opt7context13reset_maxsmtsEv(ptr noundef nonnull align 8 dereferenceable(792) %this)
  %m_optsmt = getelementptr inbounds i8, ptr %this, i64 296
  tail call void @_ZN3opt6optsmt5resetEv(ptr noundef nonnull align 8 dereferenceable(120) %m_optsmt)
  %m_hard_constraints = getelementptr inbounds i8, ptr %this, i64 208
  %m_nodes.i = getelementptr inbounds i8, ptr %this, i64 216
  %2 = load ptr, ptr %m_nodes.i, align 8
  %cmp.i.i2 = icmp eq ptr %2, null
  br i1 %cmp.i.i2, label %_ZN15ref_vector_coreI4expr19ref_manager_wrapperIS0_11ast_managerEE5resetEv.exit, label %_ZNK6vectorIP4exprLb0EjE4sizeEv.exit.i

_ZNK6vectorIP4exprLb0EjE4sizeEv.exit.i:           ; preds = %for.end
  %arrayidx.i.i3 = getelementptr inbounds i8, ptr %2, i64 -4
  %3 = load i32, ptr %arrayidx.i.i3, align 4
  %4 = zext i32 %3 to i64
  %add.ptr.i = getelementptr inbounds ptr, ptr %2, i64 %4
  %cmp3.i.not.i = icmp eq i32 %3, 0
  br i1 %cmp3.i.not.i, label %if.then.i.i, label %for.body.i.i

for.body.i.i:                                     ; preds = %_ZNK6vectorIP4exprLb0EjE4sizeEv.exit.i, %_ZN15ref_vector_coreI4expr19ref_manager_wrapperIS0_11ast_managerEE7dec_refEPS0_.exit.i.i
  %it.04.i.i = phi ptr [ %incdec.ptr.i.i, %_ZN15ref_vector_coreI4expr19ref_manager_wrapperIS0_11ast_managerEE7dec_refEPS0_.exit.i.i ], [ %2, %_ZNK6vectorIP4exprLb0EjE4sizeEv.exit.i ]
  %5 = load ptr, ptr %it.04.i.i, align 8
  %6 = load ptr, ptr %m_hard_constraints, align 8
  %tobool.not.i.i.i.i.i = icmp eq ptr %5, null
  br i1 %tobool.not.i.i.i.i.i, label %_ZN15ref_vector_coreI4expr19ref_manager_wrapperIS0_11ast_managerEE7dec_refEPS0_.exit.i.i, label %if.then.i.i.i.i.i

if.then.i.i.i.i.i:                                ; preds = %for.body.i.i
  %m_ref_count.i.i.i.i.i.i = getelementptr inbounds i8, ptr %5, i64 8
  %7 = load i32, ptr %m_ref_count.i.i.i.i.i.i, align 4
  %dec.i.i.i.i.i.i = add i32 %7, -1
  store i32 %dec.i.i.i.i.i.i, ptr %m_ref_count.i.i.i.i.i.i, align 4
  %cmp.i.i.i.i.i = icmp eq i32 %dec.i.i.i.i.i.i, 0
  br i1 %cmp.i.i.i.i.i, label %if.then2.i.i.i.i.i, label %_ZN15ref_vector_coreI4expr19ref_manager_wrapperIS0_11ast_managerEE7dec_refEPS0_.exit.i.i

if.then2.i.i.i.i.i:                               ; preds = %if.then.i.i.i.i.i
  tail call void @_ZN11ast_manager11delete_nodeEP3ast(ptr noundef nonnull align 8 dereferenceable(976) %6, ptr noundef nonnull %5)
  br label %_ZN15ref_vector_coreI4expr19ref_manager_wrapperIS0_11ast_managerEE7dec_refEPS0_.exit.i.i

_ZN15ref_vector_coreI4expr19ref_manager_wrapperIS0_11ast_managerEE7dec_refEPS0_.exit.i.i: ; preds = %if.then2.i.i.i.i.i, %if.then.i.i.i.i.i, %for.body.i.i
  %incdec.ptr.i.i = getelementptr inbounds i8, ptr %it.04.i.i, i64 8
  %cmp.i1.i = icmp ult ptr %incdec.ptr.i.i, %add.ptr.i
  br i1 %cmp.i1.i, label %for.body.i.i, label %_ZN15ref_vector_coreI4expr19ref_manager_wrapperIS0_11ast_managerEE13dec_range_refEPKPS0_S7_.exit.i, !llvm.loop !4

_ZN15ref_vector_coreI4expr19ref_manager_wrapperIS0_11ast_managerEE13dec_range_refEPKPS0_S7_.exit.i: ; preds = %_ZN15ref_vector_coreI4expr19ref_manager_wrapperIS0_11ast_managerEE7dec_refEPS0_.exit.i.i
  %.pre.i = load ptr, ptr %m_nodes.i, align 8
  %tobool.not.i.i = icmp eq ptr %.pre.i, null
  br i1 %tobool.not.i.i, label %_ZN15ref_vector_coreI4expr19ref_manager_wrapperIS0_11ast_managerEE5resetEv.exit, label %if.then.i.i

if.then.i.i:                                      ; preds = %_ZN15ref_vector_coreI4expr19ref_manager_wrapperIS0_11ast_managerEE13dec_range_refEPKPS0_S7_.exit.i, %_ZNK6vectorIP4exprLb0EjE4sizeEv.exit.i
  %8 = phi ptr [ %.pre.i, %_ZN15ref_vector_coreI4expr19ref_manager_wrapperIS0_11ast_managerEE13dec_range_refEPKPS0_S7_.exit.i ], [ %2, %_ZNK6vectorIP4exprLb0EjE4sizeEv.exit.i ]
  %arrayidx.i2.i = getelementptr inbounds i8, ptr %8, i64 -4
  store i32 0, ptr %arrayidx.i2.i, align 4
  br label %_ZN15ref_vector_coreI4expr19ref_manager_wrapperIS0_11ast_managerEE5resetEv.exit

_ZN15ref_vector_coreI4expr19ref_manager_wrapperIS0_11ast_managerEE5resetEv.exit: ; preds = %for.end, %_ZN15ref_vector_coreI4expr19ref_manager_wrapperIS0_11ast_managerEE13dec_range_refEPKPS0_S7_.exit.i, %if.then.i.i
  ret void
}